target datalayout = "e-m:e-p270:32:32-p271:32:32-p272:64:64-i64:64-i128:128-f80:128-n8:16:32:64-S128"
target triple = "x86_64-pc-linux-gnu"

@.str = private unnamed_addr constant [68 x i8] c"../openssl/providers/implementations/encode_decode/encode_key2any.c\00", align 1
@__func__.ec_spki_pub_to_der = private unnamed_addr constant [19 x i8] c"ec_spki_pub_to_der\00", align 1

; Function Attrs: nounwind uwtable
define internal i32 @ec_spki_pub_to_der(ptr noundef %0, ptr noundef %1, ptr noundef %2) #0 {
  %4 = alloca i32, align 4
  %5 = alloca ptr, align 8
  %6 = alloca ptr, align 8
  %7 = alloca ptr, align 8
  store ptr %0, ptr %5, align 8, !tbaa !3
  store ptr %1, ptr %6, align 8, !tbaa !40
  store ptr %2, ptr %7, align 8, !tbaa !3
  %8 = load ptr, ptr %5, align 8, !tbaa !3
  %9 = call ptr @EC_KEY_get0_public_key(ptr noundef %8)
  %10 = icmp eq ptr %9, null
  br i1 %10, label %11, label %12

11:                                               ; preds = %3
  call void @ERR_new()
  call void @ERR_set_debug(ptr noundef @.str, i32 noundef 730, ptr noundef @__func__.ec_spki_pub_to_der)
  call void (i32, i32, ptr, ...) @ERR_set_error(i32 noundef 57, i32 noundef 220, ptr noundef null)
  store i32 0, ptr %4, align 4
  br label %16

12:                                               ; preds = %3
  %13 = load ptr, ptr %5, align 8, !tbaa !3
  %14 = load ptr, ptr %6, align 8, !tbaa !40
  %15 = call i32 @i2o_ECPublicKey(ptr noundef %13, ptr noundef %14)
  store i32 %15, ptr %4, align 4
  br label %16

16:                                               ; preds = %12, %11
  %17 = load i32, ptr %4, align 4
  ret i32 %17
}