; Function Attrs: nounwind uwtable
define internal i32 @ec_spki_pub_to_der(ptr noundef %0, ptr noundef %1, ptr readnone captures(none) %2) #0 {
  %4 = tail call ptr @EC_KEY_get0_public_key(ptr noundef %0) #5
  %5 = icmp eq ptr %4, null
  br i1 %5, label %6, label %7

6:                                                ; preds = %3
  tail call void @ERR_new() #5
  tail call void @ERR_set_debug(ptr noundef nonnull @.str, i32 noundef 730, ptr noundef nonnull @__func__.ec_spki_pub_to_der) #5
  tail call void (i32, i32, ptr, ...) @ERR_set_error(i32 noundef 57, i32 noundef 220, ptr noundef null) #5
  br label %9

7:                                                ; preds = %3
  %8 = tail call i32 @i2o_ECPublicKey(ptr noundef %0, ptr noundef %1) #5
  br label %9

9:                                                ; preds = %7, %6
  %.0 = phi i32 [ 0, %6 ], [ %8, %7 ]
  ret i32 %.0
}